target datalayout = "e-m:e-p270:32:32-p271:32:32-p272:64:64-i64:64-i128:128-f80:128-n8:16:32:64-S128"
target triple = "x86_64-pc-linux-gnu"

@map_old_guc_names = internal constant [7 x ptr] [ptr @.str.99, ptr @.str.100, ptr @.str.101, ptr @.str.102, ptr @.str.103, ptr @.str.104, ptr null], align 16

; Function Attrs: nounwind uwtable
define dso_local i32 @guc_name_compare(ptr noundef %0, ptr noundef %1) #0 {
  %3 = alloca i32, align 4
  %4 = alloca ptr, align 8
  %5 = alloca ptr, align 8
  %6 = alloca i8, align 1
  %7 = alloca i8, align 1
  %8 = alloca i32, align 4
  store ptr %0, ptr %4, align 8
  store ptr %1, ptr %5, align 8
  br label %9

9:                                                ; preds = %68, %2
  %10 = load ptr, ptr %4, align 8
  %11 = load i8, ptr %10, align 1
  %12 = sext i8 %11 to i32
  %13 = icmp ne i32 %12, 0
  br i1 %13, label %14, label %19

14:                                               ; preds = %9
  %15 = load ptr, ptr %5, align 8
  %16 = load i8, ptr %15, align 1
  %17 = sext i8 %16 to i32
  %18 = icmp ne i32 %17, 0
  br label %19

19:                                               ; preds = %14, %9
  %20 = phi i1 [ false, %9 ], [ %18, %14 ]
  br i1 %20, label %21, label %69

21:                                               ; preds = %19
  call void @llvm.lifetime.start.p0(i64 1, ptr %6) #16
  %22 = load ptr, ptr %4, align 8
  %23 = getelementptr inbounds nuw i8, ptr %22, i32 1
  store ptr %23, ptr %4, align 8
  %24 = load i8, ptr %22, align 1
  store i8 %24, ptr %6, align 1
  call void @llvm.lifetime.start.p0(i64 1, ptr %7) #16
  %25 = load ptr, ptr %5, align 8
  %26 = getelementptr inbounds nuw i8, ptr %25, i32 1
  store ptr %26, ptr %5, align 8
  %27 = load i8, ptr %25, align 1
  store i8 %27, ptr %7, align 1
  %28 = load i8, ptr %6, align 1
  %29 = sext i8 %28 to i32
  %30 = icmp sge i32 %29, 65
  br i1 %30, label %31, label %40

31:                                               ; preds = %21
  %32 = load i8, ptr %6, align 1
  %33 = sext i8 %32 to i32
  %34 = icmp sle i32 %33, 90
  br i1 %34, label %35, label %40

35:                                               ; preds = %31
  %36 = load i8, ptr %6, align 1
  %37 = sext i8 %36 to i32
  %38 = add i32 %37, 32
  %39 = trunc i32 %38 to i8
  store i8 %39, ptr %6, align 1
  br label %40

40:                                               ; preds = %35, %31, %21
  %41 = load i8, ptr %7, align 1
  %42 = sext i8 %41 to i32
  %43 = icmp sge i32 %42, 65
  br i1 %43, label %44, label %53

44:                                               ; preds = %40
  %45 = load i8, ptr %7, align 1
  %46 = sext i8 %45 to i32
  %47 = icmp sle i32 %46, 90
  br i1 %47, label %48, label %53

48:                                               ; preds = %44
  %49 = load i8, ptr %7, align 1
  %50 = sext i8 %49 to i32
  %51 = add i32 %50, 32
  %52 = trunc i32 %51 to i8
  store i8 %52, ptr %7, align 1
  br label %53

53:                                               ; preds = %48, %44, %40
  %54 = load i8, ptr %6, align 1
  %55 = sext i8 %54 to i32
  %56 = load i8, ptr %7, align 1
  %57 = sext i8 %56 to i32
  %58 = icmp ne i32 %55, %57
  br i1 %58, label %59, label %65

59:                                               ; preds = %53
  %60 = load i8, ptr %6, align 1
  %61 = sext i8 %60 to i32
  %62 = load i8, ptr %7, align 1
  %63 = sext i8 %62 to i32
  %64 = sub i32 %61, %63
  store i32 %64, ptr %3, align 4
  store i32 1, ptr %8, align 4
  br label %66

65:                                               ; preds = %53
  store i32 0, ptr %8, align 4
  br label %66

66:                                               ; preds = %65, %59
  call void @llvm.lifetime.end.p0(i64 1, ptr %7) #16
  call void @llvm.lifetime.end.p0(i64 1, ptr %6) #16
  %67 = load i32, ptr %8, align 4
  switch i32 %67, label %82 [
    i32 0, label %68
    i32 1, label %80
  ]

68:                                               ; preds = %66
  br label %9, !llvm.loop !28

69:                                               ; preds = %19
  %70 = load ptr, ptr %4, align 8
  %71 = load i8, ptr %70, align 1
  %72 = icmp ne i8 %71, 0
  br i1 %72, label %73, label %74

73:                                               ; preds = %69
  store i32 1, ptr %3, align 4
  br label %80

74:                                               ; preds = %69
  %75 = load ptr, ptr %5, align 8
  %76 = load i8, ptr %75, align 1
  %77 = icmp ne i8 %76, 0
  br i1 %77, label %78, label %79

78:                                               ; preds = %74
  store i32 -1, ptr %3, align 4
  br label %80

79:                                               ; preds = %74
  store i32 0, ptr %3, align 4
  br label %80

80:                                               ; preds = %79, %78, %73, %66
  %81 = load i32, ptr %3, align 4
  ret i32 %81

82:                                               ; preds = %66
  unreachable
}

; Function Attrs: nounwind uwtable
define dso_local ptr @convert_GUC_name_for_parameter_acl(ptr noundef %0) #0 {
  %2 = alloca ptr, align 8
  %3 = alloca ptr, align 8
  %4 = alloca i32, align 4
  %5 = alloca i32, align 4
  %6 = alloca ptr, align 8
  %7 = alloca i8, align 1
  store ptr %0, ptr %2, align 8
  call void @llvm.lifetime.start.p0(i64 8, ptr %3) #16
  call void @llvm.lifetime.start.p0(i64 4, ptr %4) #16
  store i32 0, ptr %4, align 4
  br label %8

8:                                                ; preds = %30, %1
  %9 = load i32, ptr %4, align 4
  %10 = sext i32 %9 to i64
  %11 = getelementptr inbounds [7 x ptr], ptr @map_old_guc_names, i64 0, i64 %10
  %12 = load ptr, ptr %11, align 8
  %13 = icmp ne ptr %12, null
  br i1 %13, label %15, label %14

14:                                               ; preds = %8
  store i32 2, ptr %5, align 4
  br label %33

15:                                               ; preds = %8
  %16 = load ptr, ptr %2, align 8
  %17 = load i32, ptr %4, align 4
  %18 = sext i32 %17 to i64
  %19 = getelementptr inbounds [7 x ptr], ptr @map_old_guc_names, i64 0, i64 %18
  %20 = load ptr, ptr %19, align 8
  %21 = call i32 @guc_name_compare(ptr noundef %16, ptr noundef %20)
  %22 = icmp eq i32 %21, 0
  br i1 %22, label %23, label %29

23:                                               ; preds = %15
  %24 = load i32, ptr %4, align 4
  %25 = add i32 %24, 1
  %26 = sext i32 %25 to i64
  %27 = getelementptr inbounds [7 x ptr], ptr @map_old_guc_names, i64 0, i64 %26
  %28 = load ptr, ptr %27, align 8
  store ptr %28, ptr %2, align 8
  store i32 2, ptr %5, align 4
  br label %33

29:                                               ; preds = %15
  br label %30

30:                                               ; preds = %29
  %31 = load i32, ptr %4, align 4
  %32 = add i32 %31, 2
  store i32 %32, ptr %4, align 4
  br label %8, !llvm.loop !30

33:                                               ; preds = %23, %14
  call void @llvm.lifetime.end.p0(i64 4, ptr %4) #16
  br label %34

34:                                               ; preds = %33
  %35 = load ptr, ptr %2, align 8
  %36 = call ptr @pstrdup(ptr noundef %35)
  store ptr %36, ptr %3, align 8
  call void @llvm.lifetime.start.p0(i64 8, ptr %6) #16
  %37 = load ptr, ptr %3, align 8
  store ptr %37, ptr %6, align 8
  br label %38

38:                                               ; preds = %62, %34
  %39 = load ptr, ptr %6, align 8
  %40 = load i8, ptr %39, align 1
  %41 = sext i8 %40 to i32
  %42 = icmp ne i32 %41, 0
  br i1 %42, label %44, label %43

43:                                               ; preds = %38
  store i32 5, ptr %5, align 4
  call void @llvm.lifetime.end.p0(i64 8, ptr %6) #16
  br label %65

44:                                               ; preds = %38
  call void @llvm.lifetime.start.p0(i64 1, ptr %7) #16
  %45 = load ptr, ptr %6, align 8
  %46 = load i8, ptr %45, align 1
  store i8 %46, ptr %7, align 1
  %47 = load i8, ptr %7, align 1
  %48 = sext i8 %47 to i32
  %49 = icmp sge i32 %48, 65
  br i1 %49, label %50, label %61

50:                                               ; preds = %44
  %51 = load i8, ptr %7, align 1
  %52 = sext i8 %51 to i32
  %53 = icmp sle i32 %52, 90
  br i1 %53, label %54, label %61

54:                                               ; preds = %50
  %55 = load i8, ptr %7, align 1
  %56 = sext i8 %55 to i32
  %57 = add i32 %56, 32
  %58 = trunc i32 %57 to i8
  store i8 %58, ptr %7, align 1
  %59 = load i8, ptr %7, align 1
  %60 = load ptr, ptr %6, align 8
  store i8 %59, ptr %60, align 1
  br label %61

61:                                               ; preds = %54, %50, %44
  call void @llvm.lifetime.end.p0(i64 1, ptr %7) #16
  br label %62

62:                                               ; preds = %61
  %63 = load ptr, ptr %6, align 8
  %64 = getelementptr inbounds nuw i8, ptr %63, i32 1
  store ptr %64, ptr %6, align 8
  br label %38, !llvm.loop !31

65:                                               ; preds = %43
  %66 = load ptr, ptr %3, align 8
  store i32 1, ptr %5, align 4
  call void @llvm.lifetime.end.p0(i64 8, ptr %3) #16
  ret ptr %66
}