; Function Attrs: nounwind uwtable
define dso_local noundef ptr @convert_GUC_name_for_parameter_acl(ptr noundef %0) local_unnamed_addr #0 {
  br label %2

2:                                                ; preds = %1, %guc_name_compare.exit.thread
  %indvars.iv = phi i64 [ 0, %1 ], [ %indvars.iv.next, %guc_name_compare.exit.thread ]
  %3 = getelementptr inbounds nuw [7 x ptr], ptr @map_old_guc_names, i64 0, i64 %indvars.iv
  %4 = load ptr, ptr %3, align 16
  br label %5

5:                                                ; preds = %9, %2
  %.025.i = phi ptr [ %0, %2 ], [ %10, %9 ]
  %.024.i = phi ptr [ %4, %2 ], [ %11, %9 ]
  %6 = load i8, ptr %.025.i, align 1
  %.not.i = icmp eq i8 %6, 0
  %7 = load i8, ptr %.024.i, align 1
  %.not33.i.not = icmp eq i8 %7, 0
  br i1 %.not.i, label %guc_name_compare.exit, label %8

8:                                                ; preds = %5
  br i1 %.not33.i.not, label %guc_name_compare.exit.thread, label %9

9:                                                ; preds = %8
  %10 = getelementptr inbounds nuw i8, ptr %.025.i, i64 1
  %11 = getelementptr inbounds nuw i8, ptr %.024.i, i64 1
  %12 = add i8 %6, -65
  %or.cond.i = icmp ult i8 %12, 26
  %13 = or disjoint i8 %6, 32
  %spec.select.i = select i1 %or.cond.i, i8 %13, i8 %6
  %14 = add i8 %7, -65
  %or.cond5.i = icmp ult i8 %14, 26
  %15 = or disjoint i8 %7, 32
  %.022.i = select i1 %or.cond5.i, i8 %15, i8 %7
  %.not34.not.i = icmp eq i8 %spec.select.i, %.022.i
  br i1 %.not34.not.i, label %5, label %guc_name_compare.exit.thread

guc_name_compare.exit:                            ; preds = %5
  br i1 %.not33.i.not, label %16, label %guc_name_compare.exit.thread

16:                                               ; preds = %guc_name_compare.exit
  %17 = shl i64 %indvars.iv, 32
  %sext = ashr exact i64 %17, 32
  %18 = or disjoint i64 %sext, 1
  %19 = getelementptr inbounds [7 x ptr], ptr @map_old_guc_names, i64 0, i64 %18
  %20 = load ptr, ptr %19, align 8
  br label %.loopexit

guc_name_compare.exit.thread:                     ; preds = %9, %8, %guc_name_compare.exit
  %indvars.iv.next = add nuw nsw i64 %indvars.iv, 2
  %.not = icmp eq i64 %indvars.iv.next, 6
  br i1 %.not, label %.loopexit, label %2, !llvm.loop !29

.loopexit:                                        ; preds = %guc_name_compare.exit.thread, %16
  %.018 = phi ptr [ %20, %16 ], [ %0, %guc_name_compare.exit.thread ]
  %21 = tail call ptr @pstrdup(ptr noundef %.018) #29
  %22 = load i8, ptr %21, align 1
  %.not2127 = icmp eq i8 %22, 0
  br i1 %.not2127, label %._crit_edge, label %.lr.ph

._crit_edge:                                      ; preds = %27, %.loopexit
  ret ptr %21

.lr.ph:                                           ; preds = %.loopexit, %27
  %23 = phi i8 [ %29, %27 ], [ %22, %.loopexit ]
  %.028 = phi ptr [ %28, %27 ], [ %21, %.loopexit ]
  %24 = add i8 %23, -65
  %or.cond = icmp ult i8 %24, 26
  br i1 %or.cond, label %25, label %27

25:                                               ; preds = %.lr.ph
  %26 = or disjoint i8 %23, 32
  store i8 %26, ptr %.028, align 1
  br label %27

27:                                               ; preds = %25, %.lr.ph
  %28 = getelementptr inbounds nuw i8, ptr %.028, i64 1
  %29 = load i8, ptr %28, align 1
  %.not21 = icmp eq i8 %29, 0
  br i1 %.not21, label %._crit_edge, label %.lr.ph, !llvm.loop !30
}